; ModuleID = '24/1576.c'
source_filename = "24/1576.c"
target datalayout = "e-m:e-p270:32:32-p271:32:32-p272:64:64-i64:64-f80:128-n8:16:32:64-S128"
target triple = "x86_64-pc-linux-gnu"

@zfc = common dso_local global [1000 x i8] zeroinitializer, align 16

; Function Attrs: noinline nounwind uwtable
define dso_local i32 @main() #0 {
  %1 = alloca i32, align 4
  %2 = alloca i32, align 4
  %3 = alloca [100 x i32], align 16
  %4 = alloca i32, align 4
  %5 = alloca i32, align 4
  %6 = alloca i32, align 4
  %7 = alloca i32, align 4
  %8 = alloca i32, align 4
  %9 = alloca i32, align 4
  store i32 0, i32* %1, align 4
  %10 = bitcast [100 x i32]* %3 to i8*
  call void @llvm.memset.p0i8.i64(i8* align 16 %10, i8 0, i64 400, i1 false)
  store i32 1, i32* %5, align 4
  store i32 0, i32* %6, align 4
  store i32 0, i32* %7, align 4
  %11 = call i32 (i8*, ...) bitcast (i32 (...)* @gets to i32 (i8*, ...)*)(i8* getelementptr inbounds ([1000 x i8], [1000 x i8]* @zfc, i64 0, i64 0))
  %12 = call i64 @strlen(i8* getelementptr inbounds ([1000 x i8], [1000 x i8]* @zfc, i64 0, i64 0)) #4
  %13 = trunc i64 %12 to i32
  store i32 %13, i32* %2, align 4
  store i32 0, i32* %4, align 4
  br label %14

14:                                               ; preds = %44, %0
  %15 = load i32, i32* %4, align 4
  %16 = load i32, i32* %2, align 4
  %17 = icmp slt i32 %15, %16
  br i1 %17, label %18, label %47

18:                                               ; preds = %14
  %19 = load i32, i32* %4, align 4
  %20 = sext i32 %19 to i64
  %21 = getelementptr inbounds [1000 x i8], [1000 x i8]* @zfc, i64 0, i64 %20
  %22 = load i8, i8* %21, align 1
  %23 = sext i8 %22 to i32
  %24 = icmp eq i32 %23, 32
  br i1 %24, label %32, label %25

25:                                               ; preds = %18
  %26 = load i32, i32* %4, align 4
  %27 = sext i32 %26 to i64
  %28 = getelementptr inbounds [1000 x i8], [1000 x i8]* @zfc, i64 0, i64 %27
  %29 = load i8, i8* %28, align 1
  %30 = sext i8 %29 to i32
  %31 = icmp eq i32 %30, 44
  br i1 %31, label %32, label %43

32:                                               ; preds = %25, %18
  %33 = load i32, i32* %4, align 4
  %34 = add nsw i32 %33, 1
  %35 = load i32, i32* %5, align 4
  %36 = sext i32 %35 to i64
  %37 = getelementptr inbounds [100 x i32], [100 x i32]* %3, i64 0, i64 %36
  store i32 %34, i32* %37, align 4
  %38 = load i32, i32* %5, align 4
  %39 = add nsw i32 %38, 1
  store i32 %39, i32* %5, align 4
  %40 = load i32, i32* %4, align 4
  %41 = sext i32 %40 to i64
  %42 = getelementptr inbounds [1000 x i8], [1000 x i8]* @zfc, i64 0, i64 %41
  store i8 0, i8* %42, align 1
  br label %43

43:                                               ; preds = %32, %25
  br label %44

44:                                               ; preds = %43
  %45 = load i32, i32* %4, align 4
  %46 = add nsw i32 %45, 1
  store i32 %46, i32* %4, align 4
  br label %14

47:                                               ; preds = %14
  %48 = getelementptr inbounds [100 x i32], [100 x i32]* %3, i64 0, i64 1
  %49 = load i32, i32* %48, align 4
  %50 = sub nsw i32 %49, 1
  store i32 %50, i32* %9, align 4
  store i32 %50, i32* %8, align 4
  store i32 0, i32* %4, align 4
  br label %51

51:                                               ; preds = %108, %47
  %52 = load i32, i32* %4, align 4
  %53 = load i32, i32* %5, align 4
  %54 = icmp slt i32 %52, %53
  br i1 %54, label %55, label %111

55:                                               ; preds = %51
  %56 = load i32, i32* %4, align 4
  %57 = sext i32 %56 to i64
  %58 = getelementptr inbounds [100 x i32], [100 x i32]* %3, i64 0, i64 %57
  %59 = load i32, i32* %58, align 4
  %60 = sext i32 %59 to i64
  %61 = getelementptr inbounds [1000 x i8], [1000 x i8]* @zfc, i64 0, i64 %60
  %62 = call i64 @strlen(i8* %61) #4
  %63 = load i32, i32* %8, align 4
  %64 = sext i32 %63 to i64
  %65 = icmp ugt i64 %62, %64
  br i1 %65, label %66, label %76

66:                                               ; preds = %55
  %67 = load i32, i32* %4, align 4
  %68 = sext i32 %67 to i64
  %69 = getelementptr inbounds [100 x i32], [100 x i32]* %3, i64 0, i64 %68
  %70 = load i32, i32* %69, align 4
  %71 = sext i32 %70 to i64
  %72 = getelementptr inbounds [1000 x i8], [1000 x i8]* @zfc, i64 0, i64 %71
  %73 = call i64 @strlen(i8* %72) #4
  %74 = trunc i64 %73 to i32
  store i32 %74, i32* %8, align 4
  %75 = load i32, i32* %4, align 4
  store i32 %75, i32* %6, align 4
  br label %107

76:                                               ; preds = %55
  %77 = load i32, i32* %4, align 4
  %78 = sext i32 %77 to i64
  %79 = getelementptr inbounds [100 x i32], [100 x i32]* %3, i64 0, i64 %78
  %80 = load i32, i32* %79, align 4
  %81 = sext i32 %80 to i64
  %82 = getelementptr inbounds [1000 x i8], [1000 x i8]* @zfc, i64 0, i64 %81
  %83 = call i64 @strlen(i8* %82) #4
  %84 = load i32, i32* %9, align 4
  %85 = sext i32 %84 to i64
  %86 = icmp ult i64 %83, %85
  br i1 %86, label %87, label %106

87:                                               ; preds = %76
  %88 = load i32, i32* %4, align 4
  %89 = sext i32 %88 to i64
  %90 = getelementptr inbounds [100 x i32], [100 x i32]* %3, i64 0, i64 %89
  %91 = load i32, i32* %90, align 4
  %92 = sext i32 %91 to i64
  %93 = getelementptr inbounds [1000 x i8], [1000 x i8]* @zfc, i64 0, i64 %92
  %94 = call i64 @strlen(i8* %93) #4
  %95 = icmp ugt i64 %94, 0
  br i1 %95, label %96, label %106

96:                                               ; preds = %87
  %97 = load i32, i32* %4, align 4
  %98 = sext i32 %97 to i64
  %99 = getelementptr inbounds [100 x i32], [100 x i32]* %3, i64 0, i64 %98
  %100 = load i32, i32* %99, align 4
  %101 = sext i32 %100 to i64
  %102 = getelementptr inbounds [1000 x i8], [1000 x i8]* @zfc, i64 0, i64 %101
  %103 = call i64 @strlen(i8* %102) #4
  %104 = trunc i64 %103 to i32
  store i32 %104, i32* %9, align 4
  %105 = load i32, i32* %4, align 4
  store i32 %105, i32* %7, align 4
  br label %106

106:                                              ; preds = %96, %87, %76
  br label %107

107:                                              ; preds = %106, %66
  br label %108

108:                                              ; preds = %107
  %109 = load i32, i32* %4, align 4
  %110 = add nsw i32 %109, 1
  store i32 %110, i32* %4, align 4
  br label %51

111:                                              ; preds = %51
  %112 = load i32, i32* %6, align 4
  %113 = sext i32 %112 to i64
  %114 = getelementptr inbounds [100 x i32], [100 x i32]* %3, i64 0, i64 %113
  %115 = load i32, i32* %114, align 4
  %116 = sext i32 %115 to i64
  %117 = getelementptr inbounds [1000 x i8], [1000 x i8]* @zfc, i64 0, i64 %116
  %118 = call i32 @puts(i8* %117)
  %119 = load i32, i32* %7, align 4
  %120 = sext i32 %119 to i64
  %121 = getelementptr inbounds [100 x i32], [100 x i32]* %3, i64 0, i64 %120
  %122 = load i32, i32* %121, align 4
  %123 = sext i32 %122 to i64
  %124 = getelementptr inbounds [1000 x i8], [1000 x i8]* @zfc, i64 0, i64 %123
  %125 = call i32 @puts(i8* %124)
  ret i32 0
}

; Function Attrs: argmemonly nounwind willreturn
declare void @llvm.memset.p0i8.i64(i8* nocapture writeonly, i8, i64, i1 immarg) #1

declare dso_local i32 @gets(...) #2

; Function Attrs: nounwind readonly
declare dso_local i64 @strlen(i8*) #3

declare dso_local i32 @puts(i8*) #2


!llvm.module.flags = !{!0}
!llvm.ident = !{!1}

!0 = !{i32 1, !"wchar_size", i32 4}
!1 = !{!"clang version 10.0.0-4ubuntu1 "}
